; ModuleID = '37/504.c'
source_filename = "37/504.c"
target datalayout = "e-m:e-p270:32:32-p271:32:32-p272:64:64-i64:64-f80:128-n8:16:32:64-S128"
target triple = "x86_64-pc-linux-gnu"

@.str = private unnamed_addr constant [3 x i8] c"%d\00", align 1
@.str.1 = private unnamed_addr constant [4 x i8] c"%c\0A\00", align 1
@.str.2 = private unnamed_addr constant [4 x i8] c"no\0A\00", align 1

; Function Attrs: noinline nounwind uwtable
define dso_local void @main() #0 {
  %1 = alloca i32, align 4
  %2 = alloca i32, align 4
  %3 = alloca i32, align 4
  %4 = alloca i32, align 4
  %5 = alloca i32, align 4
  %6 = alloca i32, align 4
  %7 = alloca [100000 x i8]*, align 8
  %8 = alloca [2 x i8], align 1
  store i32 0, i32* %5, align 4
  store i32 0, i32* %6, align 4
  %9 = call i32 (i8*, ...) @__isoc99_scanf(i8* getelementptr inbounds ([3 x i8], [3 x i8]* @.str, i64 0, i64 0), i32* %4)
  %10 = getelementptr inbounds [2 x i8], [2 x i8]* %8, i64 0, i64 0
  %11 = call i32 (i8*, ...) bitcast (i32 (...)* @gets to i32 (i8*, ...)*)(i8* %10)
  %12 = load i32, i32* %4, align 4
  %13 = sext i32 %12 to i64
  %14 = mul i64 %13, 1
  %15 = mul i64 %14, 100000
  %16 = call noalias i8* @malloc(i64 %15) #3
  %17 = bitcast i8* %16 to [100000 x i8]*
  store [100000 x i8]* %17, [100000 x i8]** %7, align 8
  store i32 0, i32* %1, align 4
  br label %18

18:                                               ; preds = %29, %0
  %19 = load i32, i32* %1, align 4
  %20 = load i32, i32* %4, align 4
  %21 = icmp slt i32 %19, %20
  br i1 %21, label %22, label %32

22:                                               ; preds = %18
  %23 = load [100000 x i8]*, [100000 x i8]** %7, align 8
  %24 = load i32, i32* %1, align 4
  %25 = sext i32 %24 to i64
  %26 = getelementptr inbounds [100000 x i8], [100000 x i8]* %23, i64 %25
  %27 = getelementptr inbounds [100000 x i8], [100000 x i8]* %26, i64 0, i64 0
  %28 = call i32 (i8*, ...) bitcast (i32 (...)* @gets to i32 (i8*, ...)*)(i8* %27)
  br label %29

29:                                               ; preds = %22
  %30 = load i32, i32* %1, align 4
  %31 = add nsw i32 %30, 1
  store i32 %31, i32* %1, align 4
  br label %18

32:                                               ; preds = %18
  store i32 0, i32* %1, align 4
  br label %33

33:                                               ; preds = %119, %32
  %34 = load i32, i32* %1, align 4
  %35 = load i32, i32* %4, align 4
  %36 = icmp slt i32 %34, %35
  br i1 %36, label %37, label %122

37:                                               ; preds = %33
  store i32 0, i32* %6, align 4
  store i32 0, i32* %2, align 4
  br label %38

38:                                               ; preds = %110, %37
  %39 = load [100000 x i8]*, [100000 x i8]** %7, align 8
  %40 = load i32, i32* %1, align 4
  %41 = sext i32 %40 to i64
  %42 = getelementptr inbounds [100000 x i8], [100000 x i8]* %39, i64 %41
  %43 = getelementptr inbounds [100000 x i8], [100000 x i8]* %42, i64 0, i64 0
  %44 = load i32, i32* %2, align 4
  %45 = sext i32 %44 to i64
  %46 = getelementptr inbounds i8, i8* %43, i64 %45
  %47 = load i8, i8* %46, align 1
  %48 = sext i8 %47 to i32
  %49 = icmp ne i32 %48, 0
  br i1 %49, label %50, label %113

50:                                               ; preds = %38
  store i32 0, i32* %3, align 4
  br label %51

51:                                               ; preds = %91, %50
  %52 = load [100000 x i8]*, [100000 x i8]** %7, align 8
  %53 = load i32, i32* %1, align 4
  %54 = sext i32 %53 to i64
  %55 = getelementptr inbounds [100000 x i8], [100000 x i8]* %52, i64 %54
  %56 = getelementptr inbounds [100000 x i8], [100000 x i8]* %55, i64 0, i64 0
  %57 = load i32, i32* %3, align 4
  %58 = sext i32 %57 to i64
  %59 = getelementptr inbounds i8, i8* %56, i64 %58
  %60 = load i8, i8* %59, align 1
  %61 = sext i8 %60 to i32
  %62 = icmp ne i32 %61, 0
  br i1 %62, label %63, label %94

63:                                               ; preds = %51
  %64 = load [100000 x i8]*, [100000 x i8]** %7, align 8
  %65 = load i32, i32* %1, align 4
  %66 = sext i32 %65 to i64
  %67 = getelementptr inbounds [100000 x i8], [100000 x i8]* %64, i64 %66
  %68 = getelementptr inbounds [100000 x i8], [100000 x i8]* %67, i64 0, i64 0
  %69 = load i32, i32* %2, align 4
  %70 = sext i32 %69 to i64
  %71 = getelementptr inbounds i8, i8* %68, i64 %70
  %72 = load i8, i8* %71, align 1
  %73 = sext i8 %72 to i32
  %74 = load [100000 x i8]*, [100000 x i8]** %7, align 8
  %75 = load i32, i32* %1, align 4
  %76 = sext i32 %75 to i64
  %77 = getelementptr inbounds [100000 x i8], [100000 x i8]* %74, i64 %76
  %78 = getelementptr inbounds [100000 x i8], [100000 x i8]* %77, i64 0, i64 0
  %79 = load i32, i32* %3, align 4
  %80 = sext i32 %79 to i64
  %81 = getelementptr inbounds i8, i8* %78, i64 %80
  %82 = load i8, i8* %81, align 1
  %83 = sext i8 %82 to i32
  %84 = icmp eq i32 %73, %83
  br i1 %84, label %85, label %90

85:                                               ; preds = %63
  %86 = load i32, i32* %2, align 4
  %87 = load i32, i32* %3, align 4
  %88 = icmp ne i32 %86, %87
  br i1 %88, label %89, label %90

89:                                               ; preds = %85
  store i32 1, i32* %5, align 4
  br label %94

90:                                               ; preds = %85, %63
  br label %91

91:                                               ; preds = %90
  %92 = load i32, i32* %3, align 4
  %93 = add nsw i32 %92, 1
  store i32 %93, i32* %3, align 4
  br label %51

94:                                               ; preds = %89, %51
  %95 = load i32, i32* %5, align 4
  %96 = icmp eq i32 %95, 0
  br i1 %96, label %97, label %109

97:                                               ; preds = %94
  %98 = load [100000 x i8]*, [100000 x i8]** %7, align 8
  %99 = load i32, i32* %1, align 4
  %100 = sext i32 %99 to i64
  %101 = getelementptr inbounds [100000 x i8], [100000 x i8]* %98, i64 %100
  %102 = getelementptr inbounds [100000 x i8], [100000 x i8]* %101, i64 0, i64 0
  %103 = load i32, i32* %2, align 4
  %104 = sext i32 %103 to i64
  %105 = getelementptr inbounds i8, i8* %102, i64 %104
  %106 = load i8, i8* %105, align 1
  %107 = sext i8 %106 to i32
  %108 = call i32 (i8*, ...) @printf(i8* getelementptr inbounds ([4 x i8], [4 x i8]* @.str.1, i64 0, i64 0), i32 %107)
  store i32 1, i32* %6, align 4
  br label %113

109:                                              ; preds = %94
  store i32 0, i32* %5, align 4
  br label %110

110:                                              ; preds = %109
  %111 = load i32, i32* %2, align 4
  %112 = add nsw i32 %111, 1
  store i32 %112, i32* %2, align 4
  br label %38

113:                                              ; preds = %97, %38
  %114 = load i32, i32* %6, align 4
  %115 = icmp eq i32 %114, 0
  br i1 %115, label %116, label %118

116:                                              ; preds = %113
  %117 = call i32 (i8*, ...) @printf(i8* getelementptr inbounds ([4 x i8], [4 x i8]* @.str.2, i64 0, i64 0))
  br label %118

118:                                              ; preds = %116, %113
  br label %119

119:                                              ; preds = %118
  %120 = load i32, i32* %1, align 4
  %121 = add nsw i32 %120, 1
  store i32 %121, i32* %1, align 4
  br label %33

122:                                              ; preds = %33
  ret void
}

declare dso_local i32 @__isoc99_scanf(i8*, ...) #1

declare dso_local i32 @gets(...) #1

; Function Attrs: nounwind
declare dso_local noalias i8* @malloc(i64) #2

declare dso_local i32 @printf(i8*, ...) #1


!llvm.module.flags = !{!0}
!llvm.ident = !{!1}

!0 = !{i32 1, !"wchar_size", i32 4}
!1 = !{!"clang version 10.0.0-4ubuntu1 "}
