; ModuleID = 'source-C-CXX/36/504.c'
source_filename = "source-C-CXX/36/504.c"
target datalayout = "e-m:e-p270:32:32-p271:32:32-p272:64:64-i64:64-f80:128-n8:16:32:64-S128"
target triple = "x86_64-pc-linux-gnu"

@.str = private unnamed_addr constant [3 x i8] c"%d\00", align 1
@.str.1 = private unnamed_addr constant [4 x i8] c"%c\0A\00", align 1
@str = private unnamed_addr constant [3 x i8] c"no\00", align 1

; Function Attrs: nounwind sspstrong uwtable
define dso_local void @main() local_unnamed_addr #0 {
  %1 = alloca i32, align 4
  %2 = alloca [2 x i8], align 1
  %3 = bitcast i32* %1 to i8*
  call void @llvm.lifetime.start.p0i8(i64 4, i8* nonnull %3) #6
  %4 = getelementptr inbounds [2 x i8], [2 x i8]* %2, i64 0, i64 0
  call void @llvm.lifetime.start.p0i8(i64 2, i8* nonnull %4) #6
  %5 = call i32 (i8*, ...) @__isoc99_scanf(i8* getelementptr inbounds ([3 x i8], [3 x i8]* @.str, i64 0, i64 0), i32* nonnull %1)
  %6 = call i32 (i8*, ...) bitcast (i32 (...)* @gets to i32 (i8*, ...)*)(i8* nonnull %4) #6
  %7 = load i32, i32* %1, align 4, !tbaa !5
  %8 = sext i32 %7 to i64
  %9 = mul nsw i64 %8, 100000
  %10 = call noalias align 16 i8* @malloc(i64 %9) #6
  %11 = bitcast i8* %10 to [100000 x i8]*
  %12 = icmp sgt i32 %7, 0
  br i1 %12, label %15, label %57

13:                                               ; preds = %15
  %14 = icmp sgt i32 %20, 0
  br i1 %14, label %23, label %57

15:                                               ; preds = %0, %15
  %16 = phi i64 [ %19, %15 ], [ 0, %0 ]
  %17 = getelementptr inbounds [100000 x i8], [100000 x i8]* %11, i64 %16, i64 0
  %18 = call i32 (i8*, ...) bitcast (i32 (...)* @gets to i32 (i8*, ...)*)(i8* %17) #6
  %19 = add nuw nsw i64 %16, 1
  %20 = load i32, i32* %1, align 4, !tbaa !5
  %21 = sext i32 %20 to i64
  %22 = icmp slt i64 %19, %21
  br i1 %22, label %15, label %13, !llvm.loop !9

23:                                               ; preds = %13, %52
  %24 = phi i64 [ %53, %52 ], [ 0, %13 ]
  %25 = getelementptr inbounds [100000 x i8], [100000 x i8]* %11, i64 %24, i64 0
  %26 = load i8, i8* %25, align 16, !tbaa !11
  %27 = icmp eq i8 %26, 0
  br i1 %27, label %50, label %28

28:                                               ; preds = %23, %45
  %29 = phi i64 [ %46, %45 ], [ 0, %23 ]
  %30 = phi i8 [ %48, %45 ], [ %26, %23 ]
  br label %35

31:                                               ; preds = %35
  %32 = getelementptr inbounds [100000 x i8], [100000 x i8]* %11, i64 %24, i64 %41
  %33 = load i8, i8* %32, align 1, !tbaa !11
  %34 = icmp eq i8 %33, 0
  br i1 %34, label %42, label %35, !llvm.loop !12

35:                                               ; preds = %28, %31
  %36 = phi i64 [ 0, %28 ], [ %41, %31 ]
  %37 = phi i8 [ %26, %28 ], [ %33, %31 ]
  %38 = icmp ne i8 %30, %37
  %39 = icmp eq i64 %29, %36
  %40 = select i1 %38, i1 true, i1 %39
  %41 = add nuw i64 %36, 1
  br i1 %40, label %31, label %45

42:                                               ; preds = %31
  %43 = sext i8 %30 to i32
  %44 = call i32 (i8*, ...) @printf(i8* nonnull dereferenceable(1) getelementptr inbounds ([4 x i8], [4 x i8]* @.str.1, i64 0, i64 0), i32 %43)
  br label %52

45:                                               ; preds = %35
  %46 = add nuw i64 %29, 1
  %47 = getelementptr inbounds [100000 x i8], [100000 x i8]* %11, i64 %24, i64 %46
  %48 = load i8, i8* %47, align 1, !tbaa !11
  %49 = icmp eq i8 %48, 0
  br i1 %49, label %50, label %28, !llvm.loop !13

50:                                               ; preds = %45, %23
  %51 = call i32 @puts(i8* nonnull dereferenceable(1) getelementptr inbounds ([3 x i8], [3 x i8]* @str, i64 0, i64 0))
  br label %52

52:                                               ; preds = %42, %50
  %53 = add nuw nsw i64 %24, 1
  %54 = load i32, i32* %1, align 4, !tbaa !5
  %55 = sext i32 %54 to i64
  %56 = icmp slt i64 %53, %55
  br i1 %56, label %23, label %57, !llvm.loop !14

57:                                               ; preds = %52, %0, %13
  call void @llvm.lifetime.end.p0i8(i64 2, i8* nonnull %4) #6
  call void @llvm.lifetime.end.p0i8(i64 4, i8* nonnull %3) #6
  ret void
}

; Function Attrs: argmemonly mustprogress nofree nosync nounwind willreturn
declare void @llvm.lifetime.start.p0i8(i64 immarg, i8* nocapture) #1

; Function Attrs: nofree nounwind
declare noundef i32 @__isoc99_scanf(i8* nocapture noundef readonly, ...) local_unnamed_addr #2

declare i32 @gets(...) local_unnamed_addr #3

; Function Attrs: inaccessiblememonly mustprogress nofree nounwind willreturn
declare noalias noundef align 16 i8* @malloc(i64 noundef) local_unnamed_addr #4

; Function Attrs: nofree nounwind
declare noundef i32 @printf(i8* nocapture noundef readonly, ...) local_unnamed_addr #2

; Function Attrs: argmemonly mustprogress nofree nosync nounwind willreturn
declare void @llvm.lifetime.end.p0i8(i64 immarg, i8* nocapture) #1

; Function Attrs: nofree nounwind
declare noundef i32 @puts(i8* nocapture noundef readonly) local_unnamed_addr #5


!llvm.module.flags = !{!0, !1, !2, !3}
!llvm.ident = !{!4}

!0 = !{i32 1, !"wchar_size", i32 4}
!1 = !{i32 7, !"PIC Level", i32 2}
!2 = !{i32 7, !"PIE Level", i32 2}
!3 = !{i32 7, !"uwtable", i32 1}
!4 = !{!"clang version 13.0.0"}
!5 = !{!6, !6, i64 0}
!6 = !{!"int", !7, i64 0}
!7 = !{!"omnipotent char", !8, i64 0}
!8 = !{!"Simple C/C++ TBAA"}
!9 = distinct !{!9, !10}
!10 = !{!"llvm.loop.mustprogress"}
!11 = !{!7, !7, i64 0}
!12 = distinct !{!12, !10}
!13 = distinct !{!13, !10}
!14 = distinct !{!14, !10}
